target datalayout = "e-m:e-p270:32:32-p271:32:32-p272:64:64-i64:64-i128:128-f80:128-n8:16:32:64-S128"
target triple = "x86_64-pc-linux-gnu"

%struct.curl_pollfds = type { ptr, i32, i32, i8 }

@Curl_cfree = external global ptr, align 8

; Function Attrs: nounwind uwtable
define hidden void @Curl_pollfds_cleanup(ptr noundef %0) #0 {
  %2 = alloca ptr, align 8
  store ptr %0, ptr %2, align 8, !tbaa !24
  br label %3

3:                                                ; preds = %1
  br label %4

4:                                                ; preds = %3
  %5 = load ptr, ptr %2, align 8, !tbaa !24
  %6 = getelementptr inbounds nuw %struct.curl_pollfds, ptr %5, i32 0, i32 3
  %7 = load i8, ptr %6, align 8
  %8 = and i8 %7, 1
  %9 = zext i8 %8 to i32
  %10 = icmp ne i32 %9, 0
  br i1 %10, label %11, label %16

11:                                               ; preds = %4
  %12 = load ptr, ptr @Curl_cfree, align 8, !tbaa !29
  %13 = load ptr, ptr %2, align 8, !tbaa !24
  %14 = getelementptr inbounds nuw %struct.curl_pollfds, ptr %13, i32 0, i32 0
  %15 = load ptr, ptr %14, align 8, !tbaa !26
  call void %12(ptr noundef %15)
  br label %16

16:                                               ; preds = %11, %4
  %17 = load ptr, ptr %2, align 8, !tbaa !24
  call void @llvm.memset.p0.i64(ptr align 8 %17, i8 0, i64 24, i1 false)
  ret void
}