; Function Attrs: nounwind uwtable
define hidden void @Curl_pollfds_cleanup(ptr noundef captures(none) initializes((8, 16), (17, 24)) %0) local_unnamed_addr #0 {
  %2 = getelementptr inbounds nuw i8, ptr %0, i64 16
  %3 = load i8, ptr %2, align 8
  %4 = and i8 %3, 1
  %.not = icmp eq i8 %4, 0
  br i1 %.not, label %8, label %5

5:                                                ; preds = %1
  %6 = load ptr, ptr @Curl_cfree, align 8, !tbaa !20
  %7 = load ptr, ptr %0, align 8, !tbaa !15
  tail call void %6(ptr noundef %7) #10
  br label %8

8:                                                ; preds = %5, %1
  tail call void @llvm.memset.p0.i64(ptr noundef nonnull align 8 dereferenceable(24) %0, i8 0, i64 24, i1 false)
  ret void
}